ccopy_reg
_reconstructor
p0
(csympy.matrices.dense
MutableDenseMatrix
p1
c__builtin__
object
p2
Ntp3
Rp4
(dp5
S'rows'
p6
I3
sS'_mat'
p7
(lp8
csympy.core.add
Add
p9
(csympy.core.mul
Mul
p10
(csympy.core.numbers
Float
p11
((I0
S'8ed916872b021'
p12
I-53
I52
tp13
tp14
Rp15
(dp16
S'_prec'
p17
I53
sbcsympy.core.symbol
Symbol
p18
(S'ddq1'
p19
tp20
Rp21
(dp22
S'_assumptions'
p23
g0
(csympy.core.assumptions
StdFactKB
p24
c__builtin__
dict
p25
(dp26
S'real'
p27
I01
sS'polar'
p28
NsS'irrational'
p29
NsS'antihermitian'
p30
NsS'nonpositive'
p31
NsS'algebraic'
p32
NsS'zero'
p33
NsS'infinite'
p34
NsS'integer'
p35
NsS'hermitian'
p36
I01
sS'odd'
p37
NsS'imaginary'
p38
I00
sS'even'
p39
NsS'commutative'
p40
I01
sS'positive'
p41
NsS'negative'
p42
NsS'nonnegative'
p43
NsS'complex'
p44
I01
sS'rational'
p45
NsS'finite'
p46
Nstp47
Rp48
(dp49
S'_generator'
p50
(dp51
g27
I01
ssbsbcsympy.functions.elementary.trigonometric
cos
p52
(g9
(g18
(S'q3'
p53
tp54
Rp55
(dp56
g23
g0
(g24
g25
(dp57
g27
I01
sg28
Nsg29
Nsg30
Nsg31
Nsg32
Nsg33
Nsg34
Nsg35
Nsg36
I01
sg37
Nsg38
I00
sg39
Nsg40
I01
sg41
Nsg42
Nsg43
Nsg44
I01
sg45
Nsg46
Nstp58
Rp59
(dp60
g50
(dp61
g27
I01
ssbsbg10
(csympy.core.numbers
Integer
p62
(I2
tp63
Rp64
(dp65
bg18
(S'q2'
p66
tp67
Rp68
(dp69
g23
g0
(g24
g25
(dp70
g27
I01
sg28
Nsg29
Nsg30
Nsg31
Nsg32
Nsg33
Nsg34
Nsg35
Nsg36
I01
sg37
Nsg38
I00
sg39
Nsg40
I01
sg41
Nsg42
Nsg43
Nsg44
I01
sg45
Nsg46
Nstp71
Rp72
(dp73
g50
(dp74
g27
I01
ssbsbtp75
Rp76
(dp77
btp78
Rp79
(dp80
btp81
Rp82
(dp83
btp84
Rp85
(dp86
bg10
(g11
((I1
S'8ed916872b021'
p87
I-53
I52
tp88
tp89
Rp90
(dp91
g17
I53
sbg21
g52
(g55
tp92
Rp93
(dp94
btp95
Rp96
(dp97
bg10
(g11
((I0
S'8ed916872b021'
p98
I-53
I52
tp99
tp100
Rp101
(dp102
g17
I53
sbg18
(S'dq1'
p103
tp104
Rp105
(dp106
g23
g0
(g24
g25
(dp107
g27
I01
sg28
Nsg29
Nsg30
Nsg31
Nsg32
Nsg33
Nsg34
Nsg35
Nsg36
I01
sg37
Nsg38
I00
sg39
Nsg40
I01
sg41
Nsg42
Nsg43
NsS'prime'
p108
Nsg44
I01
sg45
Nsg46
Nstp109
Rp110
(dp111
g50
(dp112
g27
I01
ssbsbg18
(S'dq3'
p113
tp114
Rp115
(dp116
g23
g0
(g24
g25
(dp117
g27
I01
sg28
Nsg29
Nsg30
Nsg31
Nsg32
Nsg33
Nsg34
Nsg35
Nsg36
I01
sg37
Nsg38
I00
sg39
Nsg40
I01
sg41
Nsg42
Nsg43
Nsg108
Nsg44
I01
sg45
Nsg46
Nstp118
Rp119
(dp120
g50
(dp121
g27
I01
ssbsbcsympy.functions.elementary.trigonometric
sin
p122
(g55
tp123
Rp124
(dp125
btp126
Rp127
(dp128
bg10
(g11
((I1
S'8ed916872b021'
p129
I-53
I52
tp130
tp131
Rp132
(dp133
g17
I53
sbg105
g9
(g115
g10
(g64
g18
(S'dq2'
p134
tp135
Rp136
(dp137
g23
g0
(g24
g25
(dp138
g27
I01
sg28
Nsg29
Nsg30
Nsg31
Nsg32
Nsg33
Nsg34
Nsg35
Nsg36
I01
sg37
Nsg38
I00
sg39
Nsg40
I01
sg41
Nsg42
Nsg43
Nsg108
Nsg44
I01
sg45
Nsg46
Nstp139
Rp140
(dp141
g50
(dp142
g27
I01
ssbsbtp143
Rp144
(dp145
btp146
Rp147
(dp148
bg122
(g9
(g55
g76
tp149
Rp150
(dp151
btp152
Rp153
(dp154
btp155
Rp156
(dp157
btp158
Rp159
(dp160
bag9
(g10
(g18
(S'ddq2'
p161
tp162
Rp163
(dp164
g23
g0
(g24
g25
(dp165
g27
I01
sg28
Nsg29
Nsg30
Nsg31
Nsg32
Nsg33
Nsg34
Nsg35
Nsg36
I01
sg37
Nsg38
I00
sg39
Nsg40
I01
sg41
Nsg42
Nsg43
Nsg44
I01
sg45
Nsg46
Nstp166
Rp167
(dp168
g50
(dp169
g27
I01
ssbsbg52
(g9
(g68
g55
tp170
Rp171
(dp172
btp173
Rp174
(dp175
btp176
Rp177
(dp178
bg10
(g18
(S'ddq3'
p179
tp180
Rp181
(dp182
g23
g0
(g24
g25
(dp183
g27
I01
sg28
Nsg29
Nsg30
Nsg31
Nsg32
Nsg33
Nsg34
Nsg36
I01
sg38
I00
sg39
Nsg40
I01
sg41
Nsg42
Nsg43
Nsg44
I01
sg45
Nsg46
Nstp184
Rp185
(dp186
g50
(dp187
g27
I01
ssbsbg174
tp188
Rp189
(dp190
bg10
(g11
((I1
S'1'
p191
I0
I1
tp192
tp193
Rp194
(dp195
g17
I53
sbg136
g9
(g136
g115
tp196
Rp197
(dp198
bg122
(g171
tp199
Rp200
(dp201
btp202
Rp203
(dp204
bg10
(g11
((I1
g191
I0
I1
tp205
tp206
Rp207
(dp208
g17
I53
sbg115
g197
g200
tp209
Rp210
(dp211
btp212
Rp213
(dp214
bag9
(g10
(g11
((I0
S'8ed916872b021'
p215
I-53
I52
tp216
tp217
Rp218
(dp219
g17
I53
sbg21
g153
tp220
Rp221
(dp222
bg10
(g11
((I1
S'8ed916872b021'
p223
I-53
I52
tp224
tp225
Rp226
(dp227
g17
I53
sbg21
g124
tp228
Rp229
(dp230
bg10
(g11
((I0
S'8ed916872b021'
p231
I-53
I52
tp232
tp233
Rp234
(dp235
g17
I53
sbg105
g147
g82
tp236
Rp237
(dp238
bg10
(g11
((I1
S'8ed916872b021'
p239
I-53
I52
tp240
tp241
Rp242
(dp243
g17
I53
sbg105
g115
g93
tp244
Rp245
(dp246
btp247
Rp248
(dp249
bag9
(g10
(g21
g122
(g9
(g10
(g64
g68
tp250
Rp251
(dp252
bg10
(g64
g55
tp253
Rp254
(dp255
btp256
Rp257
(dp258
btp259
Rp260
(dp261
btp262
Rp263
(dp264
bg10
(g64
g105
g197
g52
(g9
(g10
(g64
g68
tp265
Rp266
(dp267
bg10
(g64
g55
tp268
Rp269
(dp270
btp271
Rp272
(dp273
btp274
Rp275
(dp276
btp277
Rp278
(dp279
btp280
Rp281
(dp282
bacsympy.core.numbers
Zero
p283
(I0
tp284
Rp285
(dp286
bag285
ag9
(g10
(g163
g200
tp287
Rp288
(dp289
bg10
(g181
g200
tp290
Rp291
(dp292
bg10
(g136
g197
g174
tp293
Rp294
(dp295
bg10
(g115
g197
g174
tp296
Rp297
(dp298
btp299
Rp300
(dp301
bag9
(g10
(csympy.core.numbers
NegativeOne
p302
(I-1
tp303
Rp304
(dp305
bg21
g122
(g10
(g64
g68
tp306
Rp307
(dp308
btp309
Rp310
(dp311
btp312
Rp313
(dp314
bg10
(g62
(I-2
tp315
Rp316
(dp317
bg105
g136
g52
(g10
(g64
g68
tp318
Rp319
(dp320
btp321
Rp322
(dp323
btp324
Rp325
(dp326
btp327
Rp328
(dp329
bag9
(g10
(csympy.core.numbers
Half
p330
(I1
I2
tp331
Rp332
(dp333
bg21
tp334
Rp335
(dp336
bg10
(g332
g21
g275
tp337
Rp338
(dp339
bg10
(g11
((I1
g191
I0
I1
tp340
tp341
Rp342
(dp343
g17
I53
sbg105
g197
g260
tp344
Rp345
(dp346
btp347
Rp348
(dp349
bag9
(g10
(g163
g122
(g68
tp350
Rp351
(dp352
btp353
Rp354
(dp355
bg10
(csympy.core.power
Pow
p356
(g136
g64
tp357
Rp358
(dp359
bg52
(g68
tp360
Rp361
(dp362
btp363
Rp364
(dp365
btp366
Rp367
(dp368
bag285
ag9
(g10
(g358
g351
tp369
Rp370
(dp371
bg10
(g304
g163
g361
tp372
Rp373
(dp374
btp375
Rp376
(dp377
bag9
(g335
g10
(g332
g21
g322
tp378
Rp379
(dp380
bg10
(g304
g105
g136
g310
tp381
Rp382
(dp383
btp384
Rp385
(dp386
bag9
(g335
g10
(csympy.core.numbers
Rational
p387
(I-1
I2
tp388
Rp389
(dp390
bg21
g322
tp391
Rp392
(dp393
bg10
(g105
g136
g310
tp394
Rp395
(dp396
btp397
Rp398
(dp399
bag285
ag9
(g10
(g11
((I1
S'9cf5c28f5c28f'
p400
I-48
I52
tp401
tp402
Rp403
(dp404
g17
I53
sbg200
tp405
Rp406
(dp407
bg10
(g11
((I0
S'8ed916872b021'
p408
I-53
I52
tp409
tp410
Rp411
(dp412
g17
I53
sbg356
(g105
g64
tp413
Rp414
(dp415
bg153
tp416
Rp417
(dp418
bg10
(g11
((I0
S'8ed916872b021'
p419
I-53
I52
tp420
tp421
Rp422
(dp423
g17
I53
sbg356
(g115
g64
tp424
Rp425
(dp426
bg124
tp427
Rp428
(dp429
bg10
(g11
((I1
S'8ed916872b021'
p430
I-53
I52
tp431
tp432
Rp433
(dp434
g17
I53
sbg181
g93
tp435
Rp436
(dp437
bg10
(g11
((I1
S'8ed916872b021'
p438
I-52
I52
tp439
tp440
Rp441
(dp442
g17
I53
sbg163
g93
tp443
Rp444
(dp445
bg10
(g11
((I0
S'8ed916872b021'
p446
I-52
I52
tp447
tp448
Rp449
(dp450
g17
I53
sbg136
g115
g124
tp451
Rp452
(dp453
btp454
Rp455
(dp456
bag10
(g11
((I0
g191
I0
I1
tp457
tp458
Rp459
(dp460
g17
I53
sbg21
g174
tp461
Rp462
(dp463
bag9
(g10
(g11
((I0
S'9cf5c28f5c28f'
p464
I-48
I52
tp465
tp466
Rp467
(dp468
g17
I53
sbg174
tp469
Rp470
(dp471
bg10
(g11
((I1
S'8ed916872b021'
p472
I-53
I52
tp473
tp474
Rp475
(dp476
g17
I53
sbg181
g124
tp477
Rp478
(dp479
bg10
(g11
((I1
S'8ed916872b021'
p480
I-53
I52
tp481
tp482
Rp483
(dp484
g17
I53
sbg414
g82
tp485
Rp486
(dp487
bg10
(g11
((I1
S'8ed916872b021'
p488
I-53
I52
tp489
tp490
Rp491
(dp492
g17
I53
sbg425
g93
tp493
Rp494
(dp495
bg10
(g11
((I1
S'8ed916872b021'
p496
I-52
I52
tp497
tp498
Rp499
(dp500
g17
I53
sbg163
g124
tp501
Rp502
(dp503
bg10
(g11
((I1
S'8ed916872b021'
p504
I-52
I52
tp505
tp506
Rp507
(dp508
g17
I53
sbg136
g115
g93
tp509
Rp510
(dp511
btp512
Rp513
(dp514
bag10
(g11
((I1
g191
I0
I1
tp515
tp516
Rp517
(dp518
g17
I53
sbg414
g275
tp519
Rp520
(dp521
bag10
(g11
((I0
S'9cf5c28f5c28f'
p522
I-48
I52
tp523
tp524
Rp525
(dp526
g17
I53
sbg361
tp527
Rp528
(dp529
bag10
(g11
((I0
S'9cf5c28f5c28f'
p530
I-48
I52
tp531
tp532
Rp533
(dp534
g17
I53
sbg351
tp535
Rp536
(dp537
bag10
(g11
((I0
g191
I0
I1
tp538
tp539
Rp540
(dp541
g17
I53
sbg21
g200
tp542
Rp543
(dp544
bag10
(g11
((I0
g191
I0
I1
tp545
tp546
Rp547
(dp548
g17
I53
sbg414
g322
tp549
Rp550
(dp551
bag10
(g11
((I0
g191
I-1
I1
tp552
tp553
Rp554
(dp555
g17
I53
sbg414
g260
tp556
Rp557
(dp558
bag10
(g11
((I0
g191
I0
I1
tp559
tp560
Rp561
(dp562
g17
I53
sbg21
g351
tp563
Rp564
(dp565
bag9
(g10
(g11
((I0
g191
I0
I1
tp566
tp567
Rp568
(dp569
g17
I53
sbg163
tp570
Rp571
(dp572
bg10
(g11
((I0
g191
I0
I1
tp573
tp574
Rp575
(dp576
g17
I53
sbg181
tp577
Rp578
(dp579
btp580
Rp581
(dp582
bag10
(g11
((I1
g191
I0
I1
tp583
tp584
Rp585
(dp586
g17
I53
sbg21
g361
tp587
Rp588
(dp589
bag10
(g11
((I0
g191
I-1
I1
tp590
tp591
Rp592
(dp593
g17
I53
sbg414
g310
tp594
Rp595
(dp596
bag10
(g11
((I1
g191
I-1
I1
tp597
tp598
Rp599
(dp600
g17
I53
sbg414
g310
tp601
Rp602
(dp603
bag571
ag9
(g406
g10
(g11
((I0
S'8ed916872b021'
p604
I-54
I52
tp605
tp606
Rp607
(dp608
g17
I53
sbg414
g153
tp609
Rp610
(dp611
bg10
(g11
((I1
S'8ed916872b021'
p612
I-54
I52
tp613
tp614
Rp615
(dp616
g17
I53
sbg414
g124
tp617
Rp618
(dp619
bg10
(g11
((I1
S'8ed916872b021'
p620
I-53
I52
tp621
tp622
Rp623
(dp624
g17
I53
sbg163
g93
tp625
Rp626
(dp627
bg10
(g11
((I1
S'8ed916872b021'
p628
I-53
I52
tp629
tp630
Rp631
(dp632
g17
I53
sbg358
g124
tp633
Rp634
(dp635
btp636
Rp637
(dp638
bag462
ag9
(g470
g10
(g11
((I0
S'8ed916872b021'
p639
I-54
I52
tp640
tp641
Rp642
(dp643
g17
I53
sbg414
g93
tp644
Rp645
(dp646
bg10
(g11
((I0
S'8ed916872b021'
p647
I-53
I52
tp648
tp649
Rp650
(dp651
g17
I53
sbg358
g93
tp652
Rp653
(dp654
bg10
(g11
((I1
S'8ed916872b021'
p655
I-54
I52
tp656
tp657
Rp658
(dp659
g17
I53
sbg414
g82
tp660
Rp661
(dp662
bg10
(g11
((I1
S'8ed916872b021'
p663
I-53
I52
tp664
tp665
Rp666
(dp667
g17
I53
sbg163
g124
tp668
Rp669
(dp670
btp671
Rp672
(dp673
bag520
ag285
ag285
ag543
ag285
ag557
ag285
ag581
ag285
ag285
ag285
ag285
asS'cols'
p674
I15
sb.