ccopy_reg
_reconstructor
p0
(csympy.matrices.dense
MutableDenseMatrix
p1
c__builtin__
object
p2
Ntp3
Rp4
(dp5
S'rows'
p6
I3
sS'_mat'
p7
(lp8
csympy.core.add
Add
p9
(csympy.core.mul
Mul
p10
(csympy.core.numbers
Float
p11
((I0
S'8ed916872b021'
p12
I-53
I52
tp13
tp14
Rp15
(dp16
S'_prec'
p17
I53
sbcsympy.core.symbol
Symbol
p18
(S'ddq1'
p19
tp20
Rp21
(dp22
S'_assumptions'
p23
g0
(csympy.core.assumptions
StdFactKB
p24
c__builtin__
dict
p25
(dp26
S'real'
p27
I01
sS'polar'
p28
NsS'irrational'
p29
NsS'antihermitian'
p30
NsS'nonpositive'
p31
NsS'algebraic'
p32
NsS'zero'
p33
NsS'infinite'
p34
NsS'integer'
p35
NsS'hermitian'
p36
I01
sS'odd'
p37
NsS'imaginary'
p38
I00
sS'even'
p39
NsS'commutative'
p40
I01
sS'positive'
p41
NsS'negative'
p42
NsS'nonnegative'
p43
NsS'complex'
p44
I01
sS'rational'
p45
NsS'finite'
p46
Nstp47
Rp48
(dp49
S'_generator'
p50
(dp51
g27
I01
ssbsbcsympy.functions.elementary.trigonometric
cos
p52
(g9
(g18
(S'q3'
p53
tp54
Rp55
(dp56
g23
g0
(g24
g25
(dp57
g27
I01
sg28
Nsg29
Nsg30
Nsg31
Nsg32
Nsg33
Nsg34
Nsg35
Nsg36
I01
sg37
Nsg38
I00
sg39
Nsg40
I01
sg41
Nsg42
Nsg43
Nsg44
I01
sg45
Nsg46
Nstp58
Rp59
(dp60
g50
(dp61
g27
I01
ssbsbg10
(csympy.core.numbers
Integer
p62
(I2
tp63
Rp64
(dp65
bg18
(S'q2'
p66
tp67
Rp68
(dp69
g23
g0
(g24
g25
(dp70
g27
I01
sg28
Nsg29
Nsg30
Nsg31
Nsg32
Nsg33
Nsg34
Nsg35
Nsg36
I01
sg37
Nsg38
I00
sg39
Nsg40
I01
sg41
Nsg42
Nsg43
Nsg44
I01
sg45
Nsg46
Nstp71
Rp72
(dp73
g50
(dp74
g27
I01
ssbsbtp75
Rp76
(dp77
btp78
Rp79
(dp80
btp81
Rp82
(dp83
btp84
Rp85
(dp86
bg10
(g11
((I1
S'8ed916872b021'
p87
I-53
I52
tp88
tp89
Rp90
(dp91
g17
I53
sbg21
g52
(g55
tp92
Rp93
(dp94
btp95
Rp96
(dp97
bg10
(g11
((I0
S'8ed916872b021'
p98
I-53
I52
tp99
tp100
Rp101
(dp102
g17
I53
sbg18
(S'dq1'
p103
tp104
Rp105
(dp106
g23
g0
(g24
g25
(dp107
g27
I01
sg28
Nsg36
I01
sg29
Nsg30
Nsg31
NsS'composite'
p108
Nsg32
Nsg33
Nsg34
Nsg35
Nsg38
I00
sg37
Nsg39
Nsg40
I01
sg41
Nsg42
Nsg43
NsS'prime'
p109
Nsg44
I01
sg45
Nsg46
Nstp110
Rp111
(dp112
g50
(dp113
g27
I01
ssbsbg18
(S'dq3'
p114
tp115
Rp116
(dp117
g23
g0
(g24
g25
(dp118
g27
I01
sg28
Nsg36
I01
sg29
Nsg30
Nsg31
Nsg108
Nsg32
Nsg33
Nsg34
Nsg35
Nsg38
I00
sg37
Nsg39
Nsg40
I01
sg41
Nsg42
Nsg43
Nsg109
Nsg44
I01
sg45
Nsg46
Nstp119
Rp120
(dp121
g50
(dp122
g27
I01
ssbsbcsympy.functions.elementary.trigonometric
sin
p123
(g55
tp124
Rp125
(dp126
btp127
Rp128
(dp129
bg10
(g11
((I1
S'8ed916872b021'
p130
I-53
I52
tp131
tp132
Rp133
(dp134
g17
I53
sbg105
g9
(g116
g10
(g64
g18
(S'dq2'
p135
tp136
Rp137
(dp138
g23
g0
(g24
g25
(dp139
g27
I01
sg28
Nsg36
I01
sg29
Nsg30
Nsg31
Nsg108
Nsg32
Nsg33
Nsg34
Nsg35
Nsg38
I00
sg37
Nsg39
Nsg40
I01
sg41
Nsg42
Nsg43
Nsg109
Nsg44
I01
sg45
Nsg46
Nstp140
Rp141
(dp142
g50
(dp143
g27
I01
ssbsbtp144
Rp145
(dp146
btp147
Rp148
(dp149
bg123
(g9
(g55
g76
tp150
Rp151
(dp152
btp153
Rp154
(dp155
btp156
Rp157
(dp158
btp159
Rp160
(dp161
bag9
(g10
(g11
((I0
S'8ed916872b021'
p162
I-53
I52
tp163
tp164
Rp165
(dp166
g17
I53
sbg21
g154
tp167
Rp168
(dp169
bg10
(g11
((I1
S'8ed916872b021'
p170
I-53
I52
tp171
tp172
Rp173
(dp174
g17
I53
sbg21
g125
tp175
Rp176
(dp177
bg10
(g11
((I0
S'8ed916872b021'
p178
I-53
I52
tp179
tp180
Rp181
(dp182
g17
I53
sbg105
g9
(g116
g145
tp183
Rp184
(dp185
bg82
tp186
Rp187
(dp188
bg10
(g11
((I1
S'8ed916872b021'
p189
I-53
I52
tp190
tp191
Rp192
(dp193
g17
I53
sbg105
g116
g93
tp194
Rp195
(dp196
btp197
Rp198
(dp199
bag9
(g10
(g21
g123
(g9
(g10
(g64
g68
tp200
Rp201
(dp202
bg10
(g64
g55
tp203
Rp204
(dp205
btp206
Rp207
(dp208
btp209
Rp210
(dp211
btp212
Rp213
(dp214
bg10
(g64
g105
g9
(g137
g116
tp215
Rp216
(dp217
bg52
(g9
(g10
(g64
g68
tp218
Rp219
(dp220
bg10
(g64
g55
tp221
Rp222
(dp223
btp224
Rp225
(dp226
btp227
Rp228
(dp229
btp230
Rp231
(dp232
btp233
Rp234
(dp235
bag9
(g10
(g18
(S'ddq2'
p236
tp237
Rp238
(dp239
g23
g0
(g24
g25
(dp240
g27
I01
sg28
Nsg29
Nsg30
Nsg31
Nsg32
Nsg33
Nsg34
Nsg36
I01
sg38
I00
sg40
I01
sg41
Nsg42
Nsg43
Nsg44
I01
sg45
Nsg46
Nstp241
Rp242
(dp243
g50
(dp244
g27
I01
ssbsbg52
(g9
(g68
g55
tp245
Rp246
(dp247
btp248
Rp249
(dp250
btp251
Rp252
(dp253
bg10
(g18
(S'ddq3'
p254
tp255
Rp256
(dp257
g23
g0
(g24
g25
(dp258
g27
I01
sg28
Nsg29
Nsg30
Nsg31
Nsg32
Nsg33
Nsg34
Nsg36
I01
sg38
I00
sg40
I01
sg41
Nsg42
Nsg43
Nsg44
I01
sg45
Nsg46
Nstp259
Rp260
(dp261
g50
(dp262
g27
I01
ssbsbg249
tp263
Rp264
(dp265
bg10
(g11
((I1
S'1'
p266
I0
I1
tp267
tp268
Rp269
(dp270
g17
I53
sbg137
g216
g123
(g246
tp271
Rp272
(dp273
btp274
Rp275
(dp276
bg10
(g11
((I1
g266
I0
I1
tp277
tp278
Rp279
(dp280
g17
I53
sbg116
g216
g272
tp281
Rp282
(dp283
btp284
Rp285
(dp286
bacsympy.core.numbers
Zero
p287
(I0
tp288
Rp289
(dp290
bag9
(g10
(g238
g272
tp291
Rp292
(dp293
bg10
(g256
g272
tp294
Rp295
(dp296
bg10
(g137
g216
g249
tp297
Rp298
(dp299
bg10
(g116
g216
g249
tp300
Rp301
(dp302
btp303
Rp304
(dp305
bag289
ag9
(g10
(csympy.core.numbers
NegativeOne
p306
(I-1
tp307
Rp308
(dp309
bg21
g123
(g10
(g64
g68
tp310
Rp311
(dp312
btp313
Rp314
(dp315
btp316
Rp317
(dp318
bg10
(g62
(I-2
tp319
Rp320
(dp321
bg105
g137
g52
(g10
(g64
g68
tp322
Rp323
(dp324
btp325
Rp326
(dp327
btp328
Rp329
(dp330
btp331
Rp332
(dp333
bag9
(g10
(g238
g123
(g68
tp334
Rp335
(dp336
btp337
Rp338
(dp339
bg10
(csympy.core.power
Pow
p340
(g137
g64
tp341
Rp342
(dp343
bg52
(g68
tp344
Rp345
(dp346
btp347
Rp348
(dp349
btp350
Rp351
(dp352
bag9
(g10
(csympy.core.numbers
Half
p353
(I1
I2
tp354
Rp355
(dp356
bg21
tp357
Rp358
(dp359
bg10
(g11
((I1
g266
I-1
I1
tp360
tp361
Rp362
(dp363
g17
I53
sbg21
g228
tp364
Rp365
(dp366
bg10
(g105
g216
g210
tp367
Rp368
(dp369
btp370
Rp371
(dp372
bag289
ag9
(g10
(g342
g335
tp373
Rp374
(dp375
bg10
(g308
g238
g345
tp376
Rp377
(dp378
btp379
Rp380
(dp381
bag9
(g358
g10
(csympy.core.numbers
Rational
p382
(I-1
I2
tp383
Rp384
(dp385
bg21
g326
tp386
Rp387
(dp388
bg10
(g105
g137
g314
tp389
Rp390
(dp391
btp392
Rp393
(dp394
bag289
ag105
ag289
ag21
ag289
ag289
acsympy.core.numbers
One
p395
(I1
tp396
Rp397
(dp398
bag289
ag289
ag289
acsympy.functions.elementary.complexes
sign
p399
(g105
tp400
Rp401
(dp402
bag289
ag9
(g10
(g11
((I1
S'139eb851eb851f'
p403
I-49
I53
tp404
tp405
Rp406
(dp407
g17
I53
sbg272
tp408
Rp409
(dp410
bg10
(g11
((I0
S'8ed916872b021'
p411
I-53
I52
tp412
tp413
Rp414
(dp415
g17
I53
sbg340
(g105
g64
tp416
Rp417
(dp418
bg154
tp419
Rp420
(dp421
bg10
(g11
((I0
S'8ed916872b021'
p422
I-53
I52
tp423
tp424
Rp425
(dp426
g17
I53
sbg340
(g116
g64
tp427
Rp428
(dp429
bg125
tp430
Rp431
(dp432
bg10
(g11
((I1
S'8ed916872b021'
p433
I-53
I52
tp434
tp435
Rp436
(dp437
g17
I53
sbg256
g93
tp438
Rp439
(dp440
bg10
(g11
((I1
S'8ed916872b021'
p441
I-52
I52
tp442
tp443
Rp444
(dp445
g17
I53
sbg238
g93
tp446
Rp447
(dp448
bg10
(g11
((I0
S'8ed916872b021'
p449
I-52
I52
tp450
tp451
Rp452
(dp453
g17
I53
sbg137
g116
g125
tp454
Rp455
(dp456
btp457
Rp458
(dp459
bag9
(g10
(g11
((I0
S'139eb851eb851f'
p460
I-49
I53
tp461
tp462
Rp463
(dp464
g17
I53
sbg249
tp465
Rp466
(dp467
bg10
(g11
((I1
S'8ed916872b021'
p468
I-53
I52
tp469
tp470
Rp471
(dp472
g17
I53
sbg256
g125
tp473
Rp474
(dp475
bg10
(g11
((I1
S'8ed916872b021'
p476
I-53
I52
tp477
tp478
Rp479
(dp480
g17
I53
sbg417
g82
tp481
Rp482
(dp483
bg10
(g11
((I1
S'8ed916872b021'
p484
I-53
I52
tp485
tp486
Rp487
(dp488
g17
I53
sbg428
g93
tp489
Rp490
(dp491
bg10
(g11
((I1
S'8ed916872b021'
p492
I-52
I52
tp493
tp494
Rp495
(dp496
g17
I53
sbg238
g125
tp497
Rp498
(dp499
bg10
(g11
((I1
S'8ed916872b021'
p500
I-52
I52
tp501
tp502
Rp503
(dp504
g17
I53
sbg137
g116
g93
tp505
Rp506
(dp507
btp508
Rp509
(dp510
bag10
(g11
((I1
g266
I0
I1
tp511
tp512
Rp513
(dp514
g17
I53
sbg417
g228
tp515
Rp516
(dp517
bag10
(g11
((I0
g266
I0
I1
tp518
tp519
Rp520
(dp521
g17
I53
sbg21
g249
tp522
Rp523
(dp524
bag10
(g11
((I0
S'139eb851eb851f'
p525
I-49
I53
tp526
tp527
Rp528
(dp529
g17
I53
sbg335
tp530
Rp531
(dp532
bag10
(g11
((I0
g266
I0
I1
tp533
tp534
Rp535
(dp536
g17
I53
sbg21
g272
tp537
Rp538
(dp539
bag10
(g11
((I0
S'139eb851eb851f'
p540
I-49
I53
tp541
tp542
Rp543
(dp544
g17
I53
sbg345
tp545
Rp546
(dp547
bag10
(g11
((I0
g266
I0
I1
tp548
tp549
Rp550
(dp551
g17
I53
sbg417
g326
tp552
Rp553
(dp554
bag10
(g11
((I0
g266
I0
I1
tp555
tp556
Rp557
(dp558
g17
I53
sbg21
g335
tp559
Rp560
(dp561
bag10
(g11
((I1
g266
I-1
I1
tp562
tp563
Rp564
(dp565
g17
I53
sbg417
g210
tp566
Rp567
(dp568
bag9
(g10
(g11
((I0
g266
I0
I1
tp569
tp570
Rp571
(dp572
g17
I53
sbg238
tp573
Rp574
(dp575
bg10
(g11
((I0
g266
I0
I1
tp576
tp577
Rp578
(dp579
g17
I53
sbg256
tp580
Rp581
(dp582
btp583
Rp584
(dp585
bag10
(g11
((I1
g266
I0
I1
tp586
tp587
Rp588
(dp589
g17
I53
sbg21
g345
tp590
Rp591
(dp592
bag10
(g11
((I1
g266
I-1
I1
tp593
tp594
Rp595
(dp596
g17
I53
sbg417
g314
tp597
Rp598
(dp599
bag137
ag289
ag289
ag289
ag289
ag574
ag289
ag397
ag289
ag289
ag289
ag399
(g137
tp600
Rp601
(dp602
bag9
(g409
g10
(g11
((I0
S'8ed916872b021'
p603
I-54
I52
tp604
tp605
Rp606
(dp607
g17
I53
sbg417
g154
tp608
Rp609
(dp610
bg10
(g11
((I1
S'8ed916872b021'
p611
I-54
I52
tp612
tp613
Rp614
(dp615
g17
I53
sbg417
g125
tp616
Rp617
(dp618
bg10
(g11
((I1
S'8ed916872b021'
p619
I-53
I52
tp620
tp621
Rp622
(dp623
g17
I53
sbg238
g93
tp624
Rp625
(dp626
bg10
(g11
((I1
S'8ed916872b021'
p627
I-53
I52
tp628
tp629
Rp630
(dp631
g17
I53
sbg342
g125
tp632
Rp633
(dp634
btp635
Rp636
(dp637
bag9
(g466
g10
(g11
((I0
S'8ed916872b021'
p638
I-54
I52
tp639
tp640
Rp641
(dp642
g17
I53
sbg417
g93
tp643
Rp644
(dp645
bg10
(g11
((I0
S'8ed916872b021'
p646
I-53
I52
tp647
tp648
Rp649
(dp650
g17
I53
sbg342
g93
tp651
Rp652
(dp653
bg10
(g11
((I1
S'8ed916872b021'
p654
I-54
I52
tp655
tp656
Rp657
(dp658
g17
I53
sbg417
g82
tp659
Rp660
(dp661
bg10
(g11
((I1
S'8ed916872b021'
p662
I-53
I52
tp663
tp664
Rp665
(dp666
g17
I53
sbg238
g125
tp667
Rp668
(dp669
btp670
Rp671
(dp672
bag516
ag523
ag289
ag538
ag289
ag289
ag289
ag567
ag584
ag289
ag289
ag289
ag289
ag116
ag289
ag256
ag289
ag289
ag289
ag397
ag399
(g116
tp673
Rp674
(dp675
bag289
ag289
asS'cols'
p676
I25
sb.