ccopy_reg
_reconstructor
p0
(csympy.matrices.dense
MutableDenseMatrix
p1
c__builtin__
object
p2
Ntp3
Rp4
(dp5
S'rows'
p6
I3
sS'_mat'
p7
(lp8
csympy.core.add
Add
p9
(csympy.core.mul
Mul
p10
(csympy.core.numbers
Float
p11
((I0
S'8ed916872b021'
p12
I-53
I52
tp13
tp14
Rp15
(dp16
S'_prec'
p17
I53
sbcsympy.core.symbol
Symbol
p18
(S'ddq1'
p19
tp20
Rp21
(dp22
S'_assumptions'
p23
g0
(csympy.core.assumptions
StdFactKB
p24
c__builtin__
dict
p25
(dp26
S'real'
p27
I01
sS'polar'
p28
NsS'irrational'
p29
NsS'antihermitian'
p30
NsS'nonpositive'
p31
NsS'algebraic'
p32
NsS'zero'
p33
NsS'infinite'
p34
NsS'integer'
p35
NsS'hermitian'
p36
I01
sS'odd'
p37
NsS'imaginary'
p38
I00
sS'even'
p39
NsS'commutative'
p40
I01
sS'positive'
p41
NsS'negative'
p42
NsS'nonnegative'
p43
NsS'complex'
p44
I01
sS'rational'
p45
NsS'finite'
p46
Nstp47
Rp48
(dp49
S'_generator'
p50
(dp51
g27
I01
ssbsbcsympy.functions.elementary.trigonometric
sin
p52
(g9
(g18
(S'q3'
p53
tp54
Rp55
(dp56
g23
g0
(g24
g25
(dp57
g27
I01
sg28
Nsg29
Nsg30
Nsg31
Nsg32
Nsg33
Nsg34
Nsg35
Nsg36
I01
sg37
Nsg38
I00
sg39
Nsg40
I01
sg41
Nsg42
Nsg43
Nsg44
I01
sg45
Nsg46
Nstp58
Rp59
(dp60
g50
(dp61
g27
I01
ssbsbg10
(csympy.core.numbers
Integer
p62
(I2
tp63
Rp64
(dp65
bg18
(S'q2'
p66
tp67
Rp68
(dp69
g23
g0
(g24
g25
(dp70
g27
I01
sg28
Nsg29
Nsg30
Nsg31
Nsg32
Nsg33
Nsg34
Nsg35
Nsg36
I01
sg37
Nsg38
I00
sg39
Nsg40
I01
sg41
Nsg42
Nsg43
Nsg44
I01
sg45
Nsg46
Nstp71
Rp72
(dp73
g50
(dp74
g27
I01
ssbsbtp75
Rp76
(dp77
btp78
Rp79
(dp80
btp81
Rp82
(dp83
btp84
Rp85
(dp86
bg10
(g11
((I1
S'8ed916872b021'
p87
I-53
I52
tp88
tp89
Rp90
(dp91
g17
I53
sbg21
g52
(g55
tp92
Rp93
(dp94
btp95
Rp96
(dp97
bg10
(g11
((I0
S'8ed916872b021'
p98
I-53
I52
tp99
tp100
Rp101
(dp102
g17
I53
sbg18
(S'dq1'
p103
tp104
Rp105
(dp106
g23
g0
(g24
g25
(dp107
g27
I01
sg28
Nsg29
Nsg30
Nsg31
Nsg32
Nsg33
Nsg34
Nsg35
Nsg36
I01
sg37
Nsg38
I00
sg39
Nsg40
I01
sg41
Nsg42
Nsg43
NsS'prime'
p108
Nsg44
I01
sg45
Nsg46
Nstp109
Rp110
(dp111
g50
(dp112
g27
I01
ssbsbg9
(g18
(S'dq3'
p113
tp114
Rp115
(dp116
g23
g0
(g24
g25
(dp117
g27
I01
sg28
Nsg29
Nsg30
Nsg31
Nsg32
Nsg33
Nsg34
Nsg35
Nsg36
I01
sg37
Nsg38
I00
sg39
Nsg40
I01
sg41
Nsg42
Nsg43
Nsg108
Nsg44
I01
sg45
Nsg46
Nstp118
Rp119
(dp120
g50
(dp121
g27
I01
ssbsbg10
(g64
g18
(S'dq2'
p122
tp123
Rp124
(dp125
g23
g0
(g24
g25
(dp126
g27
I01
sg28
Nsg29
Nsg30
Nsg31
Nsg32
Nsg33
Nsg34
Nsg35
Nsg36
I01
sg37
Nsg38
I00
sg39
Nsg40
I01
sg41
Nsg42
Nsg43
Nsg108
Nsg44
I01
sg45
Nsg46
Nstp127
Rp128
(dp129
g50
(dp130
g27
I01
ssbsbtp131
Rp132
(dp133
btp134
Rp135
(dp136
bcsympy.functions.elementary.trigonometric
cos
p137
(g9
(g55
g76
tp138
Rp139
(dp140
btp141
Rp142
(dp143
btp144
Rp145
(dp146
bg10
(g11
((I1
S'8ed916872b021'
p147
I-53
I52
tp148
tp149
Rp150
(dp151
g17
I53
sbg105
g115
g137
(g55
tp152
Rp153
(dp154
btp155
Rp156
(dp157
btp158
Rp159
(dp160
bag9
(g10
(g11
((I0
S'8ed916872b021'
p161
I-53
I52
tp162
tp163
Rp164
(dp165
g17
I53
sbg21
g142
tp166
Rp167
(dp168
bg10
(g11
((I1
S'8ed916872b021'
p169
I-53
I52
tp170
tp171
Rp172
(dp173
g17
I53
sbg21
g153
tp174
Rp175
(dp176
bg10
(g11
((I0
S'8ed916872b021'
p177
I-53
I52
tp178
tp179
Rp180
(dp181
g17
I53
sbg105
g115
g93
tp182
Rp183
(dp184
bg10
(g11
((I1
S'8ed916872b021'
p185
I-53
I52
tp186
tp187
Rp188
(dp189
g17
I53
sbg105
g135
g82
tp190
Rp191
(dp192
btp193
Rp194
(dp195
bag9
(g10
(g18
(S'ddq2'
p196
tp197
Rp198
(dp199
g23
g0
(g24
g25
(dp200
g27
I01
sg28
Nsg29
Nsg30
Nsg31
Nsg32
Nsg36
I01
sg34
Nsg35
Nsg38
I00
sg37
Nsg39
Nsg40
I01
sg33
Nsg41
Nsg42
Nsg43
Nsg44
I01
sg45
Nsg46
Nstp201
Rp202
(dp203
g50
(dp204
g27
I01
ssbsbg52
(g9
(g68
g55
tp205
Rp206
(dp207
btp208
Rp209
(dp210
btp211
Rp212
(dp213
bg10
(g18
(S'ddq3'
p214
tp215
Rp216
(dp217
g23
g0
(g24
g25
(dp218
g27
I01
sg28
Nsg29
Nsg30
Nsg31
Nsg32
Nsg36
I01
sg34
Nsg38
I00
sg39
Nsg40
I01
sg33
Nsg41
Nsg42
Nsg43
Nsg44
I01
sg45
Nsg46
Nstp219
Rp220
(dp221
g50
(dp222
g27
I01
ssbsbg209
tp223
Rp224
(dp225
bg10
(g124
g9
(g124
g115
tp226
Rp227
(dp228
bg137
(g206
tp229
Rp230
(dp231
btp232
Rp233
(dp234
bg10
(g115
g227
g230
tp235
Rp236
(dp237
btp238
Rp239
(dp240
bag9
(g10
(g198
g230
tp241
Rp242
(dp243
bg10
(g216
g230
tp244
Rp245
(dp246
bg10
(g11
((I1
S'1'
p247
I0
I1
tp248
tp249
Rp250
(dp251
g17
I53
sbg124
g227
g209
tp252
Rp253
(dp254
bg10
(g11
((I1
g247
I0
I1
tp255
tp256
Rp257
(dp258
g17
I53
sbg115
g227
g209
tp259
Rp260
(dp261
btp262
Rp263
(dp264
bag9
(g10
(g21
g52
(g9
(g10
(g64
g68
tp265
Rp266
(dp267
bg10
(g64
g55
tp268
Rp269
(dp270
btp271
Rp272
(dp273
btp274
Rp275
(dp276
btp277
Rp278
(dp279
bg10
(g64
g105
g227
g137
(g9
(g10
(g64
g68
tp280
Rp281
(dp282
bg10
(g64
g55
tp283
Rp284
(dp285
btp286
Rp287
(dp288
btp289
Rp290
(dp291
btp292
Rp293
(dp294
btp295
Rp296
(dp297
bacsympy.core.numbers
Zero
p298
(I0
tp299
Rp300
(dp301
bag300
ag9
(g10
(csympy.core.numbers
NegativeOne
p302
(I-1
tp303
Rp304
(dp305
bg21
g52
(g10
(g64
g68
tp306
Rp307
(dp308
btp309
Rp310
(dp311
btp312
Rp313
(dp314
bg10
(g62
(I-2
tp315
Rp316
(dp317
bg105
g124
g137
(g10
(g64
g68
tp318
Rp319
(dp320
btp321
Rp322
(dp323
btp324
Rp325
(dp326
btp327
Rp328
(dp329
bag9
(g10
(csympy.core.numbers
Half
p330
(I1
I2
tp331
Rp332
(dp333
bg21
tp334
Rp335
(dp336
bg10
(g332
g21
g290
tp337
Rp338
(dp339
bg10
(g11
((I1
g247
I0
I1
tp340
tp341
Rp342
(dp343
g17
I53
sbg105
g227
g275
tp344
Rp345
(dp346
btp347
Rp348
(dp349
bag9
(g10
(csympy.core.power
Pow
p350
(g124
g64
tp351
Rp352
(dp353
bg52
(g68
tp354
Rp355
(dp356
btp357
Rp358
(dp359
bg10
(g304
g198
g137
(g68
tp360
Rp361
(dp362
btp363
Rp364
(dp365
btp366
Rp367
(dp368
bag300
ag9
(g10
(g198
g355
tp369
Rp370
(dp371
bg10
(g352
g361
tp372
Rp373
(dp374
btp375
Rp376
(dp377
bag9
(g335
g10
(csympy.core.numbers
Rational
p378
(I-1
I2
tp379
Rp380
(dp381
bg21
g322
tp382
Rp383
(dp384
bg10
(g105
g124
g310
tp385
Rp386
(dp387
btp388
Rp389
(dp390
bag300
ag21
ag9
(g10
(g11
((I0
S'9cf5c28f5c28f'
p391
I-48
I52
tp392
tp393
Rp394
(dp395
g17
I53
sbg230
tp396
Rp397
(dp398
bg10
(g11
((I1
S'8ed916872b021'
p399
I-53
I52
tp400
tp401
Rp402
(dp403
g17
I53
sbg216
g93
tp404
Rp405
(dp406
bg10
(g11
((I1
S'8ed916872b021'
p407
I-53
I52
tp408
tp409
Rp410
(dp411
g17
I53
sbg350
(g105
g64
tp412
Rp413
(dp414
bg142
tp415
Rp416
(dp417
bg10
(g11
((I1
S'8ed916872b021'
p418
I-53
I52
tp419
tp420
Rp421
(dp422
g17
I53
sbg350
(g115
g64
tp423
Rp424
(dp425
bg153
tp426
Rp427
(dp428
bg10
(g11
((I1
S'8ed916872b021'
p429
I-52
I52
tp430
tp431
Rp432
(dp433
g17
I53
sbg198
g93
tp434
Rp435
(dp436
bg10
(g11
((I1
S'8ed916872b021'
p437
I-52
I52
tp438
tp439
Rp440
(dp441
g17
I53
sbg124
g115
g153
tp442
Rp443
(dp444
btp445
Rp446
(dp447
bag9
(g10
(g11
((I1
S'9cf5c28f5c28f'
p448
I-48
I52
tp449
tp450
Rp451
(dp452
g17
I53
sbg209
tp453
Rp454
(dp455
bg10
(g11
((I0
S'8ed916872b021'
p456
I-53
I52
tp457
tp458
Rp459
(dp460
g17
I53
sbg413
g82
tp461
Rp462
(dp463
bg10
(g11
((I0
S'8ed916872b021'
p464
I-53
I52
tp465
tp466
Rp467
(dp468
g17
I53
sbg424
g93
tp469
Rp470
(dp471
bg10
(g11
((I1
S'8ed916872b021'
p472
I-53
I52
tp473
tp474
Rp475
(dp476
g17
I53
sbg216
g153
tp477
Rp478
(dp479
bg10
(g11
((I1
S'8ed916872b021'
p480
I-52
I52
tp481
tp482
Rp483
(dp484
g17
I53
sbg198
g153
tp485
Rp486
(dp487
bg10
(g11
((I0
S'8ed916872b021'
p488
I-52
I52
tp489
tp490
Rp491
(dp492
g17
I53
sbg124
g115
g93
tp493
Rp494
(dp495
btp496
Rp497
(dp498
bag10
(g11
((I0
g247
I0
I1
tp499
tp500
Rp501
(dp502
g17
I53
sbg21
g209
tp503
Rp504
(dp505
bag10
(g11
((I0
g247
I0
I1
tp506
tp507
Rp508
(dp509
g17
I53
sbg21
g230
tp510
Rp511
(dp512
bag10
(g11
((I1
g247
I0
I1
tp513
tp514
Rp515
(dp516
g17
I53
sbg413
g290
tp517
Rp518
(dp519
bag10
(g11
((I0
S'9cf5c28f5c28f'
p520
I-48
I52
tp521
tp522
Rp523
(dp524
g17
I53
sbg355
tp525
Rp526
(dp527
bag10
(g11
((I0
S'9cf5c28f5c28f'
p528
I-48
I52
tp529
tp530
Rp531
(dp532
g17
I53
sbg361
tp533
Rp534
(dp535
bag10
(g11
((I0
g247
I0
I1
tp536
tp537
Rp538
(dp539
g17
I53
sbg413
g322
tp540
Rp541
(dp542
bag10
(g11
((I0
g247
I-1
I1
tp543
tp544
Rp545
(dp546
g17
I53
sbg413
g275
tp547
Rp548
(dp549
bag10
(g11
((I1
g247
I0
I1
tp550
tp551
Rp552
(dp553
g17
I53
sbg21
g361
tp554
Rp555
(dp556
bag9
(g10
(g11
((I0
g247
I0
I1
tp557
tp558
Rp559
(dp560
g17
I53
sbg198
tp561
Rp562
(dp563
bg10
(g11
((I0
g247
I0
I1
tp564
tp565
Rp566
(dp567
g17
I53
sbg216
tp568
Rp569
(dp570
btp571
Rp572
(dp573
bag10
(g11
((I0
g247
I0
I1
tp574
tp575
Rp576
(dp577
g17
I53
sbg21
g355
tp578
Rp579
(dp580
bag10
(g11
((I1
g247
I-1
I1
tp581
tp582
Rp583
(dp584
g17
I53
sbg413
g310
tp585
Rp586
(dp587
bag562
ag300
ag9
(g397
g10
(g11
((I0
S'8ed916872b021'
p588
I-54
I52
tp589
tp590
Rp591
(dp592
g17
I53
sbg413
g153
tp593
Rp594
(dp595
bg10
(g11
((I0
S'8ed916872b021'
p596
I-53
I52
tp597
tp598
Rp599
(dp600
g17
I53
sbg352
g153
tp601
Rp602
(dp603
bg10
(g11
((I1
S'8ed916872b021'
p604
I-54
I52
tp605
tp606
Rp607
(dp608
g17
I53
sbg413
g142
tp609
Rp610
(dp611
bg10
(g11
((I1
S'8ed916872b021'
p612
I-53
I52
tp613
tp614
Rp615
(dp616
g17
I53
sbg198
g93
tp617
Rp618
(dp619
btp620
Rp621
(dp622
bag9
(g454
g10
(g11
((I0
S'8ed916872b021'
p623
I-54
I52
tp624
tp625
Rp626
(dp627
g17
I53
sbg413
g82
tp628
Rp629
(dp630
bg10
(g11
((I1
S'8ed916872b021'
p631
I-54
I52
tp632
tp633
Rp634
(dp635
g17
I53
sbg413
g93
tp636
Rp637
(dp638
bg10
(g11
((I1
S'8ed916872b021'
p639
I-53
I52
tp640
tp641
Rp642
(dp643
g17
I53
sbg198
g153
tp644
Rp645
(dp646
bg10
(g11
((I1
S'8ed916872b021'
p647
I-53
I52
tp648
tp649
Rp650
(dp651
g17
I53
sbg352
g93
tp652
Rp653
(dp654
btp655
Rp656
(dp657
bag504
ag511
ag518
ag300
ag300
ag300
ag548
ag300
ag572
ag300
ag300
ag300
ag300
asS'cols'
p658
I15
sb.