ccopy_reg
_reconstructor
p0
(csympy.matrices.dense
MutableDenseMatrix
p1
cdill._dill
_load_type
p2
(S'ObjectType'
p3
tp4
Rp5
Ntp6
Rp7
(dp8
S'rows'
p9
I3
sS'_mat'
p10
(lp11
csympy.core.add
Add
p12
(csympy.core.mul
Mul
p13
(csympy.core.numbers
Float
p14
((I0
S'8ed916872b021'
p15
I-53
I52
tp16
tp17
Rp18
(dp19
S'_prec'
p20
I53
sbcsympy.core.symbol
Symbol
p21
(S'ddq1'
p22
tp23
Rp24
(dp25
S'_assumptions'
p26
g0
(csympy.core.assumptions
StdFactKB
p27
g2
(S'DictType'
p28
tp29
Rp30
(dp31
S'real'
p32
I01
sS'polar'
p33
NsS'irrational'
p34
NsS'antihermitian'
p35
NsS'nonpositive'
p36
NsS'algebraic'
p37
NsS'zero'
p38
NsS'infinite'
p39
NsS'integer'
p40
NsS'hermitian'
p41
I01
sS'odd'
p42
NsS'imaginary'
p43
I00
sS'even'
p44
NsS'commutative'
p45
I01
sS'positive'
p46
NsS'negative'
p47
NsS'nonnegative'
p48
NsS'complex'
p49
I01
sS'rational'
p50
NsS'finite'
p51
Nstp52
Rp53
(dp54
S'_generator'
p55
(dp56
g32
I01
ssbsbcsympy.functions.elementary.trigonometric
sin
p57
(g12
(g21
(S'q3'
p58
tp59
Rp60
(dp61
g26
g0
(g27
g30
(dp62
g32
I01
sg33
Nsg34
Nsg35
Nsg36
Nsg37
Nsg38
Nsg39
Nsg40
Nsg41
I01
sg42
Nsg43
I00
sg44
Nsg45
I01
sg46
Nsg47
Nsg48
Nsg49
I01
sg50
Nsg51
Nstp63
Rp64
(dp65
g55
(dp66
g32
I01
ssbsbg13
(csympy.core.numbers
Integer
p67
(I2
tp68
Rp69
(dp70
bg21
(S'q2'
p71
tp72
Rp73
(dp74
g26
g0
(g27
g30
(dp75
g32
I01
sg33
Nsg34
Nsg35
Nsg36
Nsg37
Nsg38
Nsg39
Nsg40
Nsg41
I01
sg42
Nsg43
I00
sg44
Nsg45
I01
sg46
Nsg47
Nsg48
Nsg49
I01
sg50
Nsg51
Nstp76
Rp77
(dp78
g55
(dp79
g32
I01
ssbsbtp80
Rp81
(dp82
btp83
Rp84
(dp85
btp86
Rp87
(dp88
btp89
Rp90
(dp91
bg13
(g14
((I1
S'8ed916872b021'
p92
I-53
I52
tp93
tp94
Rp95
(dp96
g20
I53
sbg24
g57
(g60
tp97
Rp98
(dp99
btp100
Rp101
(dp102
bg13
(g14
((I0
S'8ed916872b021'
p103
I-53
I52
tp104
tp105
Rp106
(dp107
g20
I53
sbg21
(S'dq1'
p108
tp109
Rp110
(dp111
g26
g0
(g27
g30
(dp112
g32
I01
sg33
Nsg41
I01
sg34
Nsg35
Nsg36
NsS'composite'
p113
Nsg37
Nsg38
Nsg39
Nsg40
Nsg43
I00
sg42
Nsg44
Nsg45
I01
sg46
Nsg47
Nsg48
NsS'prime'
p114
Nsg49
I01
sg50
Nsg51
Nstp115
Rp116
(dp117
g55
(dp118
g32
I01
ssbsbg12
(g21
(S'dq3'
p119
tp120
Rp121
(dp122
g26
g0
(g27
g30
(dp123
g32
I01
sg33
Nsg41
I01
sg34
Nsg35
Nsg36
Nsg113
Nsg37
Nsg38
Nsg39
Nsg40
Nsg43
I00
sg42
Nsg44
Nsg45
I01
sg46
Nsg47
Nsg48
Nsg114
Nsg49
I01
sg50
Nsg51
Nstp124
Rp125
(dp126
g55
(dp127
g32
I01
ssbsbg13
(g69
g21
(S'dq2'
p128
tp129
Rp130
(dp131
g26
g0
(g27
g30
(dp132
g32
I01
sg33
Nsg41
I01
sg34
Nsg35
Nsg36
Nsg113
Nsg37
Nsg38
Nsg39
Nsg40
Nsg43
I00
sg42
Nsg44
Nsg45
I01
sg46
Nsg47
Nsg48
Nsg114
Nsg49
I01
sg50
Nsg51
Nstp133
Rp134
(dp135
g55
(dp136
g32
I01
ssbsbtp137
Rp138
(dp139
btp140
Rp141
(dp142
bcsympy.functions.elementary.trigonometric
cos
p143
(g12
(g60
g81
tp144
Rp145
(dp146
btp147
Rp148
(dp149
btp150
Rp151
(dp152
bg13
(g14
((I1
S'8ed916872b021'
p153
I-53
I52
tp154
tp155
Rp156
(dp157
g20
I53
sbg110
g121
g143
(g60
tp158
Rp159
(dp160
btp161
Rp162
(dp163
btp164
Rp165
(dp166
bag12
(g13
(g14
((I0
S'8ed916872b021'
p167
I-53
I52
tp168
tp169
Rp170
(dp171
g20
I53
sbg24
g148
tp172
Rp173
(dp174
bg13
(g14
((I1
S'8ed916872b021'
p175
I-53
I52
tp176
tp177
Rp178
(dp179
g20
I53
sbg24
g159
tp180
Rp181
(dp182
bg13
(g14
((I0
S'8ed916872b021'
p183
I-53
I52
tp184
tp185
Rp186
(dp187
g20
I53
sbg110
g121
g98
tp188
Rp189
(dp190
bg13
(g14
((I1
S'8ed916872b021'
p191
I-53
I52
tp192
tp193
Rp194
(dp195
g20
I53
sbg110
g12
(g121
g138
tp196
Rp197
(dp198
bg87
tp199
Rp200
(dp201
btp202
Rp203
(dp204
bag12
(g13
(g21
(S'ddq2'
p205
tp206
Rp207
(dp208
g26
g0
(g27
g30
(dp209
g32
I01
sg33
Nsg34
Nsg35
Nsg36
Nsg37
Nsg38
Nsg39
Nsg41
I01
sg43
I00
sg45
I01
sg46
Nsg47
Nsg48
Nsg49
I01
sg50
Nsg51
Nstp210
Rp211
(dp212
g55
(dp213
g32
I01
ssbsbg57
(g12
(g73
g60
tp214
Rp215
(dp216
btp217
Rp218
(dp219
btp220
Rp221
(dp222
bg13
(g21
(S'ddq3'
p223
tp224
Rp225
(dp226
g26
g0
(g27
g30
(dp227
g32
I01
sg33
Nsg34
Nsg35
Nsg36
Nsg37
Nsg38
Nsg39
Nsg41
I01
sg43
I00
sg45
I01
sg46
Nsg47
Nsg48
Nsg49
I01
sg50
Nsg51
Nstp228
Rp229
(dp230
g55
(dp231
g32
I01
ssbsbg218
tp232
Rp233
(dp234
bg13
(g130
g12
(g130
g121
tp235
Rp236
(dp237
bg143
(g215
tp238
Rp239
(dp240
btp241
Rp242
(dp243
bg13
(g121
g236
g239
tp244
Rp245
(dp246
btp247
Rp248
(dp249
bag12
(g13
(g24
g57
(g12
(g13
(g69
g73
tp250
Rp251
(dp252
bg13
(g69
g60
tp253
Rp254
(dp255
btp256
Rp257
(dp258
btp259
Rp260
(dp261
btp262
Rp263
(dp264
bg13
(g69
g110
g236
g143
(g12
(g13
(g69
g73
tp265
Rp266
(dp267
bg13
(g69
g60
tp268
Rp269
(dp270
btp271
Rp272
(dp273
btp274
Rp275
(dp276
btp277
Rp278
(dp279
btp280
Rp281
(dp282
bag12
(g13
(g207
g239
tp283
Rp284
(dp285
bg13
(g225
g239
tp286
Rp287
(dp288
bg13
(g14
((I1
S'1'
p289
I0
I1
tp290
tp291
Rp292
(dp293
g20
I53
sbg130
g236
g218
tp294
Rp295
(dp296
bg13
(g14
((I1
g289
I0
I1
tp297
tp298
Rp299
(dp300
g20
I53
sbg121
g236
g218
tp301
Rp302
(dp303
btp304
Rp305
(dp306
bacsympy.core.numbers
Zero
p307
(I0
tp308
Rp309
(dp310
bag309
ag12
(g13
(csympy.core.numbers
NegativeOne
p311
(I-1
tp312
Rp313
(dp314
bg24
g57
(g13
(g69
g73
tp315
Rp316
(dp317
btp318
Rp319
(dp320
btp321
Rp322
(dp323
bg13
(g67
(I-2
tp324
Rp325
(dp326
bg110
g130
g143
(g13
(g69
g73
tp327
Rp328
(dp329
btp330
Rp331
(dp332
btp333
Rp334
(dp335
btp336
Rp337
(dp338
bag12
(g13
(csympy.core.numbers
Half
p339
(I1
I2
tp340
Rp341
(dp342
bg24
tp343
Rp344
(dp345
bg13
(g341
g24
g275
tp346
Rp347
(dp348
bg13
(g14
((I1
g289
I0
I1
tp349
tp350
Rp351
(dp352
g20
I53
sbg110
g236
g260
tp353
Rp354
(dp355
btp356
Rp357
(dp358
bag12
(g13
(csympy.core.power
Pow
p359
(g130
g69
tp360
Rp361
(dp362
bg57
(g73
tp363
Rp364
(dp365
btp366
Rp367
(dp368
bg13
(g313
g207
g143
(g73
tp369
Rp370
(dp371
btp372
Rp373
(dp374
btp375
Rp376
(dp377
bag309
ag12
(g13
(g207
g364
tp378
Rp379
(dp380
bg13
(g361
g370
tp381
Rp382
(dp383
btp384
Rp385
(dp386
bag12
(g344
g13
(csympy.core.numbers
Rational
p387
(I-1
I2
tp388
Rp389
(dp390
bg24
g331
tp391
Rp392
(dp393
bg13
(g110
g130
g319
tp394
Rp395
(dp396
btp397
Rp398
(dp399
bag309
ag309
ag309
ag309
ag24
ag309
ag309
ag309
ag309
ag12
(g13
(g14
((I0
S'139eb851eb851f'
p400
I-49
I53
tp401
tp402
Rp403
(dp404
g20
I53
sbg239
tp405
Rp406
(dp407
bg13
(g14
((I1
S'8ed916872b021'
p408
I-53
I52
tp409
tp410
Rp411
(dp412
g20
I53
sbg225
g98
tp413
Rp414
(dp415
bg13
(g14
((I1
S'8ed916872b021'
p416
I-53
I52
tp417
tp418
Rp419
(dp420
g20
I53
sbg359
(g110
g69
tp421
Rp422
(dp423
bg148
tp424
Rp425
(dp426
bg13
(g14
((I1
S'8ed916872b021'
p427
I-53
I52
tp428
tp429
Rp430
(dp431
g20
I53
sbg359
(g121
g69
tp432
Rp433
(dp434
bg159
tp435
Rp436
(dp437
bg13
(g14
((I1
S'8ed916872b021'
p438
I-52
I52
tp439
tp440
Rp441
(dp442
g20
I53
sbg207
g98
tp443
Rp444
(dp445
bg13
(g14
((I1
S'8ed916872b021'
p446
I-52
I52
tp447
tp448
Rp449
(dp450
g20
I53
sbg130
g121
g159
tp451
Rp452
(dp453
btp454
Rp455
(dp456
bag12
(g13
(g14
((I1
S'139eb851eb851f'
p457
I-49
I53
tp458
tp459
Rp460
(dp461
g20
I53
sbg218
tp462
Rp463
(dp464
bg13
(g14
((I0
S'8ed916872b021'
p465
I-53
I52
tp466
tp467
Rp468
(dp469
g20
I53
sbg422
g87
tp470
Rp471
(dp472
bg13
(g14
((I0
S'8ed916872b021'
p473
I-53
I52
tp474
tp475
Rp476
(dp477
g20
I53
sbg433
g98
tp478
Rp479
(dp480
bg13
(g14
((I1
S'8ed916872b021'
p481
I-53
I52
tp482
tp483
Rp484
(dp485
g20
I53
sbg225
g159
tp486
Rp487
(dp488
bg13
(g14
((I1
S'8ed916872b021'
p489
I-52
I52
tp490
tp491
Rp492
(dp493
g20
I53
sbg207
g159
tp494
Rp495
(dp496
bg13
(g14
((I0
S'8ed916872b021'
p497
I-52
I52
tp498
tp499
Rp500
(dp501
g20
I53
sbg130
g121
g98
tp502
Rp503
(dp504
btp505
Rp506
(dp507
bag13
(g14
((I0
g289
I0
I1
tp508
tp509
Rp510
(dp511
g20
I53
sbg24
g218
tp512
Rp513
(dp514
bag13
(g14
((I1
g289
I0
I1
tp515
tp516
Rp517
(dp518
g20
I53
sbg422
g275
tp519
Rp520
(dp521
bag13
(g14
((I0
g289
I0
I1
tp522
tp523
Rp524
(dp525
g20
I53
sbg24
g239
tp526
Rp527
(dp528
bag13
(g14
((I0
S'139eb851eb851f'
p529
I-49
I53
tp530
tp531
Rp532
(dp533
g20
I53
sbg370
tp534
Rp535
(dp536
bag13
(g14
((I0
S'139eb851eb851f'
p537
I-49
I53
tp538
tp539
Rp540
(dp541
g20
I53
sbg364
tp542
Rp543
(dp544
bag13
(g14
((I0
g289
I0
I1
tp545
tp546
Rp547
(dp548
g20
I53
sbg422
g331
tp549
Rp550
(dp551
bag13
(g14
((I0
g289
I-1
I1
tp552
tp553
Rp554
(dp555
g20
I53
sbg422
g260
tp556
Rp557
(dp558
bag13
(g14
((I1
g289
I0
I1
tp559
tp560
Rp561
(dp562
g20
I53
sbg24
g370
tp563
Rp564
(dp565
bag12
(g13
(g14
((I0
g289
I0
I1
tp566
tp567
Rp568
(dp569
g20
I53
sbg207
tp570
Rp571
(dp572
bg13
(g14
((I0
g289
I0
I1
tp573
tp574
Rp575
(dp576
g20
I53
sbg225
tp577
Rp578
(dp579
btp580
Rp581
(dp582
bag13
(g14
((I0
g289
I0
I1
tp583
tp584
Rp585
(dp586
g20
I53
sbg24
g364
tp587
Rp588
(dp589
bag13
(g14
((I1
g289
I-1
I1
tp590
tp591
Rp592
(dp593
g20
I53
sbg422
g319
tp594
Rp595
(dp596
bag309
ag130
ag309
ag571
ag309
ag309
acsympy.core.numbers
One
p597
(I1
tp598
Rp599
(dp600
bag309
acsympy.functions.elementary.complexes
sign
p601
(g130
tp602
Rp603
(dp604
bag12
(g406
g13
(g14
((I0
S'8ed916872b021'
p605
I-54
I52
tp606
tp607
Rp608
(dp609
g20
I53
sbg422
g159
tp610
Rp611
(dp612
bg13
(g14
((I0
S'8ed916872b021'
p613
I-53
I52
tp614
tp615
Rp616
(dp617
g20
I53
sbg361
g159
tp618
Rp619
(dp620
bg13
(g14
((I1
S'8ed916872b021'
p621
I-54
I52
tp622
tp623
Rp624
(dp625
g20
I53
sbg422
g148
tp626
Rp627
(dp628
bg13
(g14
((I1
S'8ed916872b021'
p629
I-53
I52
tp630
tp631
Rp632
(dp633
g20
I53
sbg207
g98
tp634
Rp635
(dp636
btp637
Rp638
(dp639
bag12
(g463
g13
(g14
((I0
S'8ed916872b021'
p640
I-54
I52
tp641
tp642
Rp643
(dp644
g20
I53
sbg422
g87
tp645
Rp646
(dp647
bg13
(g14
((I1
S'8ed916872b021'
p648
I-54
I52
tp649
tp650
Rp651
(dp652
g20
I53
sbg422
g98
tp653
Rp654
(dp655
bg13
(g14
((I1
S'8ed916872b021'
p656
I-53
I52
tp657
tp658
Rp659
(dp660
g20
I53
sbg207
g159
tp661
Rp662
(dp663
bg13
(g14
((I1
S'8ed916872b021'
p664
I-53
I52
tp665
tp666
Rp667
(dp668
g20
I53
sbg361
g98
tp669
Rp670
(dp671
btp672
Rp673
(dp674
bag513
ag520
ag527
ag309
ag309
ag309
ag557
ag309
ag581
ag309
ag309
ag121
ag309
ag225
ag309
ag309
ag599
ag309
ag601
(g121
tp675
Rp676
(dp677
bag309
asS'cols'
p678
I22
sb.